  (import "wasi_snapshot_preview1" "environ_sizes_get" (func $__imported_wasi_snapshot_preview1_environ_sizes_get (;45;) (type 4)))
  (import "wasi_snapshot_preview1" "proc_exit" (func $__imported_wasi_snapshot_preview1_proc_exit (;46;) (type 1)))
  (table (;0;) 360 360 funcref)
  (memory (;0;) 18)
  (global $__stack_pointer (;0;) (mut i32) i32.const 1048576)
  (export "memory" (memory 0))
  (export "wasi:http/incoming-handler@0.2.0#handle" (func $wasi:http/incoming-handler@0.2.0#handle))
  (export "spin-sdk-commit-unknown" (func $spin-sdk-commit-unknown))
  (export "spin-sdk-version-3-1" (func $spin-sdk-commit-unknown))
  (export "spin-sdk-language-rust" (func $spin-sdk-commit-unknown))
  (export "cabi_realloc" (func $cabi_realloc))
  (export "cabi_realloc_wit_bindgen_0_30_0" (func $_ZN14wit_bindgen_rt12cabi_realloc17h43b9bba905aa3709E))
  (elem (;0;) (i32.const 1) ...)
  (func $__wasm_call_ctors (;47;) (type 16) ...)
  (func $_ZN13opentelemetry5trace7context7SpanRef14with_inner_mut17h22a374eda2254218E (;48;) (type 2) (param i32 i32) ...)
  (func $_ZN13opentelemetry5trace7context7SpanRef14with_inner_mut17hb0fd0fd637c24422E (;49;) (type 2) (param i32 i32) ...)
  (func $_ZN3std2io17default_write_fmt17hf28535197991cdf7E (;50;) (type 3) (param i32 i32 i32) ...)
--
  (func $_ZN11wit_bindgen2rt7dealloc17h9270f1290282158aE (;324;) (type 3) (param i32 i32 i32) ...)
  (func $_ZN4core3ptr42drop_in_place$LT$alloc..string..String$GT$17hf62fd0d64a75fffcE.llvm.2031403888186099118 (;325;) (type 1) (param i32) ...)
  (func $_ZN53_$LT$core..fmt..Error$u20$as$u20$core..fmt..Debug$GT$3fmt17h4cadc06a6afc2d8eE.llvm.2031403888186099118 (;326;) (type 4) (param i32 i32) (result i32) ...)
  (func $_ZN58_$LT$alloc..string..String$u20$as$u20$core..fmt..Write$GT$10write_char17h1b99b06b2baf2665E.llvm.2031403888186099118 (;327;) (type 4) (param i32 i32) (result i32) ...)
  (func $_ZN58_$LT$alloc..string..String$u20$as$u20$core..fmt..Write$GT$9write_str17ha97e5f5ab896ddcfE.llvm.2031403888186099118 (;328;) (type 6) (param i32 i32 i32) (result i32) ...)
  (func $_ZN18opentelemetry_wasi10conversion154_$LT$impl$u20$core..convert..From$LT$opentelemetry_sdk..export..trace..SpanData$GT$$u20$for$u20$opentelemetry_wasi..wit..wasi..otel..tracing..SpanData$GT$4from17hd679a903b7c2a81cE (;329;) (type 2) (param i32 i32) ...)
  (func $_ZN18opentelemetry_wasi10conversion162_$LT$impl$u20$core..convert..From$LT$opentelemetry..trace..span_context..SpanContext$GT$$u20$for$u20$opentelemetry_wasi..wit..wasi..otel..tracing..SpanContext$GT$4from17hb81ea91895343571E (;330;) (type 2) (param i32 i32) ...)
  (func $_ZN18opentelemetry_wasi10conversion143_$LT$impl$u20$core..convert..From$LT$opentelemetry..common..KeyValue$GT$$u20$for$u20$opentelemetry_wasi..wit..wasi..otel..tracing..KeyValue$GT$4from17h4a2b005936f7e1dfE (;331;) (type 2) (param i32 i32) ...)
  (func $_ZN18opentelemetry_wasi10conversion167_$LT$impl$u20$core..convert..From$LT$opentelemetry..common..InstrumentationScope$GT$$u20$for$u20$opentelemetry_wasi..wit..wasi..otel..tracing..InstrumentationScope$GT$4from17hdb0640c55c8c27c0E (;332;) (type 2) (param i32 i32) ...)
  (func $_ZN18opentelemetry_wasi10conversion137_$LT$impl$u20$core..convert..From$LT$opentelemetry..common..Value$GT$$u20$for$u20$opentelemetry_wasi..wit..wasi..otel..tracing..Value$GT$4from17h9bf4aa05b0679403E (;333;) (type 2) (param i32 i32) ...)
  (func $_ZN18opentelemetry_wasi10conversion147_$LT$impl$u20$core..convert..From$LT$$RF$opentelemetry..common..KeyValue$GT$$u20$for$u20$opentelemetry_wasi..wit..wasi..otel..tracing..KeyValue$GT$4from17ha587483e88ef5e08E (;334;) (type 2) (param i32 i32) ...)
--
  (func $_ZN104_$LT$core..iter..adapters..cloned..Cloned$LT$I$GT$$u20$as$u20$core..iter..traits..iterator..Iterator$GT$4fold17hcbb318b486c0f904E (;405;) (type 2) (param i32 i32) ...)
  (func $_ZN104_$LT$core..iter..adapters..cloned..Cloned$LT$I$GT$$u20$as$u20$core..iter..traits..iterator..Iterator$GT$8try_fold17h5be593a57b5dd189E (;406;) (type 4) (param i32 i32) (result i32) ...)
  (func $_ZN4core3ptr49drop_in_place$LT$opentelemetry..common..Value$GT$17h77ca404a60c0ec57E.llvm.2721705300986045472 (;407;) (type 1) (param i32) ...)
  (func $_ZN4core3ptr61drop_in_place$LT$opentelemetry_sdk..trace..span..SpanData$GT$17hd270fb6c9ee560b0E (;408;) (type 1) (param i32) ...)
  (func $_ZN17opentelemetry_sdk5trace6events10SpanEvents9add_event17hbc28ca1b62e93881E (;409;) (type 2) (param i32 i32) ...)
  (func $_ZN17opentelemetry_sdk5trace4span4Span13exported_data17he040a0479123007dE (;410;) (type 2) (param i32 i32) ...)
  (func $_ZN79_$LT$opentelemetry_sdk..trace..span..SpanData$u20$as$u20$core..clone..Clone$GT$5clone17he79ce6eb11ee6c3bE (;411;) (type 2) (param i32 i32) ...)
  (func $_ZN89_$LT$opentelemetry_sdk..trace..span..Span$u20$as$u20$opentelemetry..trace..span..Span$GT$13set_attribute17h35a44ebf63500cb5E (;412;) (type 2) (param i32 i32) ...)
  (func $_ZN89_$LT$opentelemetry_sdk..trace..span..Span$u20$as$u20$opentelemetry..trace..span..Span$GT$10set_status17h584e1dbbf44d837bE (;413;) (type 2) (param i32 i32) ...)
  (func $_ZN89_$LT$opentelemetry_sdk..trace..span..Span$u20$as$u20$opentelemetry..trace..span..Span$GT$8add_link17hb4403f4bc2f08225E (;414;) (type 3) (param i32 i32 i32) ...)
  (func $_ZN89_$LT$opentelemetry_sdk..trace..span..Span$u20$as$u20$opentelemetry..trace..span..Span$GT$18end_with_timestamp17h5caf89dde2bb7ad9E (;415;) (type 11) (param i32 i64 i32) ...)
  (func $_ZN17opentelemetry_sdk5trace4span4Span25ensure_ended_and_exported17hfadb180f2438f339E (;416;) (type 11) (param i32 i64 i32) ...)
  (func $_ZN78_$LT$opentelemetry_sdk..trace..span..Span$u20$as$u20$core..ops..drop..Drop$GT$4drop17hab02e10441b7cb8dE (;417;) (type 1) (param i32) ...)
  (func $_ZN12tracing_core8callsite8Callsite15private_type_id17h9c6ee5fe8841cdedE (;418;) (type 2) (param i32 i32) ...)
  (func $_ZN3std6thread5local17LocalKey$LT$T$GT$4with17h43581bebfaed3063E (;419;) (type 2) (param i32 i32) ...)
  (func $_ZN42_$LT$$RF$T$u20$as$u20$core..fmt..Debug$GT$3fmt17hdf85cff822fb4f4eE (;420;) (type 4) (param i32 i32) (result i32) ...)
  (func $_ZN4core3ptr238drop_in_place$LT$alloc..boxed..convert..$LT$impl$u20$core..convert..From$LT$alloc..string..String$GT$$u20$for$u20$alloc..boxed..Box$LT$dyn$u20$core..error..Error$u2b$core..marker..Send$u2b$core..marker..Sync$GT$$GT$..from..StringError$GT$17h9b7f6265f10e2a2fE (;421;) (type 1) (param i32) ...)
